target datalayout = "e-m:e-p270:32:32-p271:32:32-p272:64:64-i64:64-i128:128-f80:128-n8:16:32:64-S128"
target triple = "x86_64-pc-linux-gnu"

%struct.jpeg_decompress_struct = type { ptr, ptr, ptr, ptr, i32, i32, ptr, i32, i32, i32, i32, i32, i32, i32, double, i32, i32, i32, i32, i32, i32, i32, i32, i32, i32, i32, i32, i32, i32, i32, i32, i32, i32, ptr, i32, i32, i32, i32, i32, ptr, [4 x ptr], [4 x ptr], [4 x ptr], i32, ptr, i32, i32, [16 x i8], [16 x i8], [16 x i8], i32, i32, i8, i8, i8, i16, i16, i32, i8, i32, ptr, i32, i32, i32, i32, ptr, i32, [4 x ptr], i32, i32, i32, [10 x i32], i32, i32, i32, i32, i32, ptr, ptr, ptr, ptr, ptr, ptr, ptr, ptr, ptr, ptr, ptr }
%struct.jpeg_error_mgr = type { ptr, ptr, ptr, ptr, ptr, i32, %union.anon, i32, i64, ptr, i32, ptr, i32, i32 }
%union.anon = type { [8 x i32], [48 x i8] }
%struct.bmp_dest_struct = type { %struct.djpeg_dest_struct, i32, ptr, i32, i32, i32, i32, i32, ptr }
%struct.djpeg_dest_struct = type { ptr, ptr, ptr, ptr, ptr, ptr, ptr, ptr, i32 }

; Function Attrs: nounwind uwtable
define internal void @write_os2_header(ptr noundef %0, ptr noundef %1) #0 {
  %3 = alloca ptr, align 8
  %4 = alloca ptr, align 8
  %5 = alloca [14 x i8], align 1
  %6 = alloca [12 x i8], align 1
  %7 = alloca i64, align 8
  %8 = alloca i64, align 8
  %9 = alloca i32, align 4
  %10 = alloca i32, align 4
  store ptr %0, ptr %3, align 8, !tbaa !4
  store ptr %1, ptr %4, align 8, !tbaa !43
  call void @llvm.lifetime.start.p0(i64 14, ptr %5) #7
  call void @llvm.lifetime.start.p0(i64 12, ptr %6) #7
  call void @llvm.lifetime.start.p0(i64 8, ptr %7) #7
  call void @llvm.lifetime.start.p0(i64 8, ptr %8) #7
  call void @llvm.lifetime.start.p0(i64 4, ptr %9) #7
  call void @llvm.lifetime.start.p0(i64 4, ptr %10) #7
  %11 = load ptr, ptr %3, align 8, !tbaa !4
  %12 = getelementptr inbounds nuw %struct.jpeg_decompress_struct, ptr %11, i32 0, i32 11
  %13 = load i32, ptr %12, align 8, !tbaa !53
  %14 = icmp eq i32 %13, 2
  br i1 %14, label %25, label %15

15:                                               ; preds = %2
  %16 = load ptr, ptr %3, align 8, !tbaa !4
  %17 = getelementptr inbounds nuw %struct.jpeg_decompress_struct, ptr %16, i32 0, i32 11
  %18 = load i32, ptr %17, align 8, !tbaa !53
  %19 = icmp uge i32 %18, 6
  br i1 %19, label %20, label %33

20:                                               ; preds = %15
  %21 = load ptr, ptr %3, align 8, !tbaa !4
  %22 = getelementptr inbounds nuw %struct.jpeg_decompress_struct, ptr %21, i32 0, i32 11
  %23 = load i32, ptr %22, align 8, !tbaa !53
  %24 = icmp ule i32 %23, 15
  br i1 %24, label %25, label %33

25:                                               ; preds = %20, %2
  %26 = load ptr, ptr %3, align 8, !tbaa !4
  %27 = getelementptr inbounds nuw %struct.jpeg_decompress_struct, ptr %26, i32 0, i32 20
  %28 = load i32, ptr %27, align 4, !tbaa !55
  %29 = icmp ne i32 %28, 0
  br i1 %29, label %30, label %31

30:                                               ; preds = %25
  store i32 8, ptr %9, align 4, !tbaa !9
  store i32 256, ptr %10, align 4, !tbaa !9
  br label %32

31:                                               ; preds = %25
  store i32 24, ptr %9, align 4, !tbaa !9
  store i32 0, ptr %10, align 4, !tbaa !9
  br label %32

32:                                               ; preds = %31, %30
  br label %46

33:                                               ; preds = %20, %15
  %34 = load ptr, ptr %3, align 8, !tbaa !4
  %35 = getelementptr inbounds nuw %struct.jpeg_decompress_struct, ptr %34, i32 0, i32 11
  %36 = load i32, ptr %35, align 8, !tbaa !53
  %37 = icmp eq i32 %36, 16
  br i1 %37, label %43, label %38

38:                                               ; preds = %33
  %39 = load ptr, ptr %3, align 8, !tbaa !4
  %40 = getelementptr inbounds nuw %struct.jpeg_decompress_struct, ptr %39, i32 0, i32 11
  %41 = load i32, ptr %40, align 8, !tbaa !53
  %42 = icmp eq i32 %41, 4
  br i1 %42, label %43, label %44

43:                                               ; preds = %38, %33
  store i32 24, ptr %9, align 4, !tbaa !9
  store i32 0, ptr %10, align 4, !tbaa !9
  br label %45

44:                                               ; preds = %38
  store i32 8, ptr %9, align 4, !tbaa !9
  store i32 256, ptr %10, align 4, !tbaa !9
  br label %45

45:                                               ; preds = %44, %43
  br label %46

46:                                               ; preds = %45, %32
  %47 = load i32, ptr %10, align 4, !tbaa !9
  %48 = mul nsw i32 %47, 3
  %49 = add nsw i32 26, %48
  %50 = sext i32 %49 to i64
  store i64 %50, ptr %7, align 8, !tbaa !99
  %51 = load i64, ptr %7, align 8, !tbaa !99
  %52 = load ptr, ptr %4, align 8, !tbaa !43
  %53 = getelementptr inbounds nuw %struct.bmp_dest_struct, ptr %52, i32 0, i32 4
  %54 = load i32, ptr %53, align 4, !tbaa !58
  %55 = zext i32 %54 to i64
  %56 = load ptr, ptr %3, align 8, !tbaa !4
  %57 = getelementptr inbounds nuw %struct.jpeg_decompress_struct, ptr %56, i32 0, i32 28
  %58 = load i32, ptr %57, align 4, !tbaa !65
  %59 = zext i32 %58 to i64
  %60 = mul nsw i64 %55, %59
  %61 = add nsw i64 %51, %60
  store i64 %61, ptr %8, align 8, !tbaa !99
  %62 = getelementptr inbounds [14 x i8], ptr %5, i64 0, i64 0
  call void @llvm.memset.p0.i64(ptr align 1 %62, i8 0, i64 14, i1 false)
  %63 = getelementptr inbounds [12 x i8], ptr %6, i64 0, i64 0
  call void @llvm.memset.p0.i64(ptr align 1 %63, i8 0, i64 12, i1 false)
  %64 = getelementptr inbounds [14 x i8], ptr %5, i64 0, i64 0
  store i8 66, ptr %64, align 1, !tbaa !38
  %65 = getelementptr inbounds [14 x i8], ptr %5, i64 0, i64 1
  store i8 77, ptr %65, align 1, !tbaa !38
  %66 = load i64, ptr %8, align 8, !tbaa !99
  %67 = and i64 %66, 255
  %68 = trunc i64 %67 to i8
  %69 = getelementptr inbounds [14 x i8], ptr %5, i64 0, i64 2
  store i8 %68, ptr %69, align 1, !tbaa !38
  %70 = load i64, ptr %8, align 8, !tbaa !99
  %71 = ashr i64 %70, 8
  %72 = and i64 %71, 255
  %73 = trunc i64 %72 to i8
  %74 = getelementptr inbounds [14 x i8], ptr %5, i64 0, i64 3
  store i8 %73, ptr %74, align 1, !tbaa !38
  %75 = load i64, ptr %8, align 8, !tbaa !99
  %76 = ashr i64 %75, 16
  %77 = and i64 %76, 255
  %78 = trunc i64 %77 to i8
  %79 = getelementptr inbounds [14 x i8], ptr %5, i64 0, i64 4
  store i8 %78, ptr %79, align 1, !tbaa !38
  %80 = load i64, ptr %8, align 8, !tbaa !99
  %81 = ashr i64 %80, 24
  %82 = and i64 %81, 255
  %83 = trunc i64 %82 to i8
  %84 = getelementptr inbounds [14 x i8], ptr %5, i64 0, i64 5
  store i8 %83, ptr %84, align 1, !tbaa !38
  %85 = load i64, ptr %7, align 8, !tbaa !99
  %86 = and i64 %85, 255
  %87 = trunc i64 %86 to i8
  %88 = getelementptr inbounds [14 x i8], ptr %5, i64 0, i64 10
  store i8 %87, ptr %88, align 1, !tbaa !38
  %89 = load i64, ptr %7, align 8, !tbaa !99
  %90 = ashr i64 %89, 8
  %91 = and i64 %90, 255
  %92 = trunc i64 %91 to i8
  %93 = getelementptr inbounds [14 x i8], ptr %5, i64 0, i64 11
  store i8 %92, ptr %93, align 1, !tbaa !38
  %94 = load i64, ptr %7, align 8, !tbaa !99
  %95 = ashr i64 %94, 16
  %96 = and i64 %95, 255
  %97 = trunc i64 %96 to i8
  %98 = getelementptr inbounds [14 x i8], ptr %5, i64 0, i64 12
  store i8 %97, ptr %98, align 1, !tbaa !38
  %99 = load i64, ptr %7, align 8, !tbaa !99
  %100 = ashr i64 %99, 24
  %101 = and i64 %100, 255
  %102 = trunc i64 %101 to i8
  %103 = getelementptr inbounds [14 x i8], ptr %5, i64 0, i64 13
  store i8 %102, ptr %103, align 1, !tbaa !38
  %104 = getelementptr inbounds [12 x i8], ptr %6, i64 0, i64 0
  store i8 12, ptr %104, align 1, !tbaa !38
  %105 = getelementptr inbounds [12 x i8], ptr %6, i64 0, i64 1
  store i8 0, ptr %105, align 1, !tbaa !38
  %106 = load ptr, ptr %3, align 8, !tbaa !4
  %107 = getelementptr inbounds nuw %struct.jpeg_decompress_struct, ptr %106, i32 0, i32 27
  %108 = load i32, ptr %107, align 8, !tbaa !56
  %109 = and i32 %108, 255
  %110 = trunc i32 %109 to i8
  %111 = getelementptr inbounds [12 x i8], ptr %6, i64 0, i64 4
  store i8 %110, ptr %111, align 1, !tbaa !38
  %112 = load ptr, ptr %3, align 8, !tbaa !4
  %113 = getelementptr inbounds nuw %struct.jpeg_decompress_struct, ptr %112, i32 0, i32 27
  %114 = load i32, ptr %113, align 8, !tbaa !56
  %115 = lshr i32 %114, 8
  %116 = and i32 %115, 255
  %117 = trunc i32 %116 to i8
  %118 = getelementptr inbounds [12 x i8], ptr %6, i64 0, i64 5
  store i8 %117, ptr %118, align 1, !tbaa !38
  %119 = load ptr, ptr %3, align 8, !tbaa !4
  %120 = getelementptr inbounds nuw %struct.jpeg_decompress_struct, ptr %119, i32 0, i32 28
  %121 = load i32, ptr %120, align 4, !tbaa !65
  %122 = and i32 %121, 255
  %123 = trunc i32 %122 to i8
  %124 = getelementptr inbounds [12 x i8], ptr %6, i64 0, i64 6
  store i8 %123, ptr %124, align 1, !tbaa !38
  %125 = load ptr, ptr %3, align 8, !tbaa !4
  %126 = getelementptr inbounds nuw %struct.jpeg_decompress_struct, ptr %125, i32 0, i32 28
  %127 = load i32, ptr %126, align 4, !tbaa !65
  %128 = lshr i32 %127, 8
  %129 = and i32 %128, 255
  %130 = trunc i32 %129 to i8
  %131 = getelementptr inbounds [12 x i8], ptr %6, i64 0, i64 7
  store i8 %130, ptr %131, align 1, !tbaa !38
  %132 = getelementptr inbounds [12 x i8], ptr %6, i64 0, i64 8
  store i8 1, ptr %132, align 1, !tbaa !38
  %133 = getelementptr inbounds [12 x i8], ptr %6, i64 0, i64 9
  store i8 0, ptr %133, align 1, !tbaa !38
  %134 = load i32, ptr %9, align 4, !tbaa !9
  %135 = and i32 %134, 255
  %136 = trunc i32 %135 to i8
  %137 = getelementptr inbounds [12 x i8], ptr %6, i64 0, i64 10
  store i8 %136, ptr %137, align 1, !tbaa !38
  %138 = load i32, ptr %9, align 4, !tbaa !9
  %139 = ashr i32 %138, 8
  %140 = and i32 %139, 255
  %141 = trunc i32 %140 to i8
  %142 = getelementptr inbounds [12 x i8], ptr %6, i64 0, i64 11
  store i8 %141, ptr %142, align 1, !tbaa !38
  %143 = getelementptr inbounds [14 x i8], ptr %5, i64 0, i64 0
  %144 = load ptr, ptr %4, align 8, !tbaa !43
  %145 = getelementptr inbounds nuw %struct.bmp_dest_struct, ptr %144, i32 0, i32 0
  %146 = getelementptr inbounds nuw %struct.djpeg_dest_struct, ptr %145, i32 0, i32 4
  %147 = load ptr, ptr %146, align 8, !tbaa !81
  %148 = call i64 @fwrite(ptr noundef %143, i64 noundef 1, i64 noundef 14, ptr noundef %147)
  %149 = icmp ne i64 %148, 14
  br i1 %149, label %150, label %161

150:                                              ; preds = %46
  %151 = load ptr, ptr %3, align 8, !tbaa !4
  %152 = getelementptr inbounds nuw %struct.jpeg_decompress_struct, ptr %151, i32 0, i32 0
  %153 = load ptr, ptr %152, align 8, !tbaa !34
  %154 = getelementptr inbounds nuw %struct.jpeg_error_mgr, ptr %153, i32 0, i32 5
  store i32 37, ptr %154, align 8, !tbaa !35
  %155 = load ptr, ptr %3, align 8, !tbaa !4
  %156 = getelementptr inbounds nuw %struct.jpeg_decompress_struct, ptr %155, i32 0, i32 0
  %157 = load ptr, ptr %156, align 8, !tbaa !34
  %158 = getelementptr inbounds nuw %struct.jpeg_error_mgr, ptr %157, i32 0, i32 0
  %159 = load ptr, ptr %158, align 8, !tbaa !39
  %160 = load ptr, ptr %3, align 8, !tbaa !4
  call void %159(ptr noundef %160)
  br label %161

161:                                              ; preds = %150, %46
  %162 = getelementptr inbounds [12 x i8], ptr %6, i64 0, i64 0
  %163 = load ptr, ptr %4, align 8, !tbaa !43
  %164 = getelementptr inbounds nuw %struct.bmp_dest_struct, ptr %163, i32 0, i32 0
  %165 = getelementptr inbounds nuw %struct.djpeg_dest_struct, ptr %164, i32 0, i32 4
  %166 = load ptr, ptr %165, align 8, !tbaa !81
  %167 = call i64 @fwrite(ptr noundef %162, i64 noundef 1, i64 noundef 12, ptr noundef %166)
  %168 = icmp ne i64 %167, 12
  br i1 %168, label %169, label %180

169:                                              ; preds = %161
  %170 = load ptr, ptr %3, align 8, !tbaa !4
  %171 = getelementptr inbounds nuw %struct.jpeg_decompress_struct, ptr %170, i32 0, i32 0
  %172 = load ptr, ptr %171, align 8, !tbaa !34
  %173 = getelementptr inbounds nuw %struct.jpeg_error_mgr, ptr %172, i32 0, i32 5
  store i32 37, ptr %173, align 8, !tbaa !35
  %174 = load ptr, ptr %3, align 8, !tbaa !4
  %175 = getelementptr inbounds nuw %struct.jpeg_decompress_struct, ptr %174, i32 0, i32 0
  %176 = load ptr, ptr %175, align 8, !tbaa !34
  %177 = getelementptr inbounds nuw %struct.jpeg_error_mgr, ptr %176, i32 0, i32 0
  %178 = load ptr, ptr %177, align 8, !tbaa !39
  %179 = load ptr, ptr %3, align 8, !tbaa !4
  call void %178(ptr noundef %179)
  br label %180

180:                                              ; preds = %169, %161
  %181 = load i32, ptr %10, align 4, !tbaa !9
  %182 = icmp sgt i32 %181, 0
  br i1 %182, label %183, label %187

183:                                              ; preds = %180
  %184 = load ptr, ptr %3, align 8, !tbaa !4
  %185 = load ptr, ptr %4, align 8, !tbaa !43
  %186 = load i32, ptr %10, align 4, !tbaa !9
  call void @write_colormap(ptr noundef %184, ptr noundef %185, i32 noundef %186, i32 noundef 3)
  br label %187

187:                                              ; preds = %183, %180
  call void @llvm.lifetime.end.p0(i64 4, ptr %10) #7
  call void @llvm.lifetime.end.p0(i64 4, ptr %9) #7
  call void @llvm.lifetime.end.p0(i64 8, ptr %8) #7
  call void @llvm.lifetime.end.p0(i64 8, ptr %7) #7
  call void @llvm.lifetime.end.p0(i64 12, ptr %6) #7
  call void @llvm.lifetime.end.p0(i64 14, ptr %5) #7
  ret void
}