; Function Attrs: nounwind uwtable
define internal fastcc void @write_os2_header(ptr noundef %0, ptr noundef readonly captures(none) %1) unnamed_addr #0 {
  %3 = alloca [14 x i8], align 1
  %4 = alloca [12 x i8], align 1
  call void @llvm.lifetime.start.p0(i64 14, ptr nonnull %3) #7
  call void @llvm.lifetime.start.p0(i64 12, ptr nonnull %4) #7
  %5 = getelementptr inbounds nuw i8, ptr %0, i64 64
  %6 = load i32, ptr %5, align 8, !tbaa !49
  %7 = icmp eq i32 %6, 2
  %8 = add i32 %6, -6
  %or.cond = icmp ult i32 %8, 10
  %or.cond42 = or i1 %7, %or.cond
  br i1 %or.cond42, label %9, label %12

9:                                                ; preds = %2
  %10 = getelementptr inbounds nuw i8, ptr %0, i64 108
  %11 = load i32, ptr %10, align 4, !tbaa !51
  %.not = icmp ne i32 %11, 0
  %. = select i1 %.not, i8 8, i8 24
  %.41 = select i1 %.not, i32 256, i32 0
  br label %14

12:                                               ; preds = %2
  switch i32 %6, label %13 [
    i32 16, label %14
    i32 4, label %14
  ]

13:                                               ; preds = %12
  br label %14

14:                                               ; preds = %12, %12, %9, %13
  %.035 = phi i8 [ 8, %13 ], [ %., %9 ], [ 24, %12 ], [ 24, %12 ]
  %15 = phi i1 [ true, %13 ], [ %.not, %9 ], [ false, %12 ], [ false, %12 ]
  %.0 = phi i32 [ 256, %13 ], [ %.41, %9 ], [ 0, %12 ], [ 0, %12 ]
  %16 = mul nuw nsw i32 %.0, 3
  %17 = or disjoint i32 %16, 26
  %18 = zext nneg i32 %17 to i64
  %19 = getelementptr inbounds nuw i8, ptr %1, i64 92
  %20 = load i32, ptr %19, align 4, !tbaa !54
  %21 = zext i32 %20 to i64
  %22 = getelementptr inbounds nuw i8, ptr %0, i64 140
  %23 = load i32, ptr %22, align 4, !tbaa !58
  %24 = zext i32 %23 to i64
  %25 = mul nuw nsw i64 %24, %21
  %26 = add nuw nsw i64 %25, %18
  %27 = getelementptr inbounds nuw i8, ptr %3, i64 6
  store i32 0, ptr %27, align 1
  %28 = getelementptr inbounds nuw i8, ptr %4, i64 2
  store i16 0, ptr %28, align 1
  store i8 66, ptr %3, align 1, !tbaa !35
  %29 = getelementptr inbounds nuw i8, ptr %3, i64 1
  store i8 77, ptr %29, align 1, !tbaa !35
  %30 = trunc i64 %26 to i8
  %31 = getelementptr inbounds nuw i8, ptr %3, i64 2
  store i8 %30, ptr %31, align 1, !tbaa !35
  %32 = lshr i64 %26, 8
  %33 = trunc i64 %32 to i8
  %34 = getelementptr inbounds nuw i8, ptr %3, i64 3
  store i8 %33, ptr %34, align 1, !tbaa !35
  %35 = lshr i64 %26, 16
  %36 = trunc i64 %35 to i8
  %37 = getelementptr inbounds nuw i8, ptr %3, i64 4
  store i8 %36, ptr %37, align 1, !tbaa !35
  %38 = lshr i64 %26, 24
  %39 = trunc i64 %38 to i8
  %40 = getelementptr inbounds nuw i8, ptr %3, i64 5
  store i8 %39, ptr %40, align 1, !tbaa !35
  %41 = getelementptr inbounds nuw i8, ptr %3, i64 10
  store i8 26, ptr %41, align 1, !tbaa !35
  %42 = lshr i64 %18, 8
  %43 = trunc nuw nsw i64 %42 to i8
  %44 = getelementptr inbounds nuw i8, ptr %3, i64 11
  store i8 %43, ptr %44, align 1, !tbaa !35
  %45 = getelementptr inbounds nuw i8, ptr %3, i64 12
  store i8 0, ptr %45, align 1, !tbaa !35
  %46 = getelementptr inbounds nuw i8, ptr %3, i64 13
  store i8 0, ptr %46, align 1, !tbaa !35
  store i8 12, ptr %4, align 1, !tbaa !35
  %47 = getelementptr inbounds nuw i8, ptr %4, i64 1
  store i8 0, ptr %47, align 1, !tbaa !35
  %48 = getelementptr inbounds nuw i8, ptr %0, i64 136
  %49 = load i32, ptr %48, align 8, !tbaa !52
  %50 = trunc i32 %49 to i8
  %51 = getelementptr inbounds nuw i8, ptr %4, i64 4
  store i8 %50, ptr %51, align 1, !tbaa !35
  %52 = lshr i32 %49, 8
  %53 = trunc i32 %52 to i8
  %54 = getelementptr inbounds nuw i8, ptr %4, i64 5
  store i8 %53, ptr %54, align 1, !tbaa !35
  %55 = trunc i32 %23 to i8
  %56 = getelementptr inbounds nuw i8, ptr %4, i64 6
  store i8 %55, ptr %56, align 1, !tbaa !35
  %57 = lshr i32 %23, 8
  %58 = trunc i32 %57 to i8
  %59 = getelementptr inbounds nuw i8, ptr %4, i64 7
  store i8 %58, ptr %59, align 1, !tbaa !35
  %60 = getelementptr inbounds nuw i8, ptr %4, i64 8
  store i8 1, ptr %60, align 1, !tbaa !35
  %61 = getelementptr inbounds nuw i8, ptr %4, i64 9
  store i8 0, ptr %61, align 1, !tbaa !35
  %62 = getelementptr inbounds nuw i8, ptr %4, i64 10
  store i8 %.035, ptr %62, align 1, !tbaa !35
  %63 = getelementptr inbounds nuw i8, ptr %4, i64 11
  store i8 0, ptr %63, align 1, !tbaa !35
  %64 = getelementptr inbounds nuw i8, ptr %1, i64 32
  %65 = load ptr, ptr %64, align 8, !tbaa !70
  %66 = call i64 @fwrite(ptr noundef nonnull %3, i64 noundef 1, i64 noundef 14, ptr noundef %65)
  %.not38 = icmp eq i64 %66, 14
  br i1 %.not38, label %71, label %67

67:                                               ; preds = %14
  %68 = load ptr, ptr %0, align 8, !tbaa !31
  %69 = getelementptr inbounds nuw i8, ptr %68, i64 40
  store i32 37, ptr %69, align 8, !tbaa !32
  %70 = load ptr, ptr %68, align 8, !tbaa !36
  tail call void %70(ptr noundef nonnull %0) #7
  br label %71

71:                                               ; preds = %67, %14
  %72 = load ptr, ptr %64, align 8, !tbaa !70
  %73 = call i64 @fwrite(ptr noundef nonnull %4, i64 noundef 1, i64 noundef 12, ptr noundef %72)
  %.not39 = icmp eq i64 %73, 12
  br i1 %.not39, label %78, label %74

74:                                               ; preds = %71
  %75 = load ptr, ptr %0, align 8, !tbaa !31
  %76 = getelementptr inbounds nuw i8, ptr %75, i64 40
  store i32 37, ptr %76, align 8, !tbaa !32
  %77 = load ptr, ptr %75, align 8, !tbaa !36
  tail call void %77(ptr noundef nonnull %0) #7
  br label %78

78:                                               ; preds = %74, %71
  br i1 %15, label %79, label %80

79:                                               ; preds = %78
  %.val = load ptr, ptr %64, align 8, !tbaa !70
  tail call fastcc void @write_colormap(ptr noundef nonnull %0, ptr %.val, i32 noundef %.0, i32 noundef 3)
  br label %80

80:                                               ; preds = %79, %78
  call void @llvm.lifetime.end.p0(i64 12, ptr nonnull %4) #7
  call void @llvm.lifetime.end.p0(i64 14, ptr nonnull %3) #7
  ret void
}